LIBRARY LuxEngine
EXPORTS
	?GetLocale@locale@format@@YAPAVLocale@12@XZ
	?GetCollumn@Context@format@@QBEIXZ
	?Write@string_sink@core@lux@@UAEIAAVContext@format@@PBUslice@5@H@Z
	?ParseUntilPlaceholder@internal@format@@YAPBDAAVContext@2@PBDAAUPlaceholder@2@@Z
	?ReplaceSubPlaceholder@internal@format@@YAXAAUPlaceholderCtx@12@H@Z
	?AlignString@internal@format@@YAXAAVContext@2@PAUslice@2@IABUPlaceholder@2@@Z
	?ConvertAddString@format@@YAPAUslice@1@AAVContext@1@W4StringType@1@PBDI@Z
	?TryFormatArgFree@internal@format@@YA_NAAVContext@2@AAUPlaceholder@2@@Z
	?conv_data@lux@@YAXAAVContext@format@@ABVstring@1@AAUPlaceholder@3@@Z
	?conv_data@format@@YAXAAVContext@1@_JAAUPlaceholder@1@@Z
	?conv_data@format@@YAXAAVContext@1@_KAAUPlaceholder@1@@Z
	?conv_data@format@@YAXAAVContext@1@PBDAAUPlaceholder@1@@Z
	?conv_data@format@@YAXAAVContext@1@NAAUPlaceholder@1@@Z
	?conv_data@format@@YAXAAVContext@1@_NAAUPlaceholder@1@@Z
	?conv_data@format@@YAXAAVContext@1@ABV?$basic_string@DU?$char_traits@D@std@@V?$allocator@D@2@@std@@AAUPlaceholder@1@@Z
	?conv_data@format@@YAXAAVContext@1@PBXAAUPlaceholder@1@@Z
	?conv_data@format@@YAXAAVContext@1@_NAAUPlaceholder@1@@Z
	?conv_data@format@@YAXAAVContext@1@PAUCursor@1@AAUPlaceholder@1@@Z
	?UTF16ToString@core@lux@@YA?AVstring@2@PBX@Z
	?UTF8ToUTF16@core@lux@@YA?AV?$array@G@12@PBX@Z
	?ConvertByFormat@ColorConverter@video@lux@@SA_NPBXVColorFormat@23@PAX1IIII@Z
	?Execute@Query@scene@lux@@UAE_NPAVQueryCallback@23@@Z
	??0Query@scene@lux@@QAE@PAVSceneNode@12@@Z
	?DEFAULT@Transformation@math@lux@@2V123@B